; Function Attrs: nounwind uwtable
define internal ptr @dequeiter_reduce(ptr noundef readonly captures(none) %0, ptr readnone captures(none) %1) #0 {
  %3 = getelementptr i8, ptr %0, i64 8
  %.val7 = load ptr, ptr %3, align 8, !tbaa !22
  %4 = getelementptr inbounds nuw i8, ptr %0, i64 32
  %5 = load ptr, ptr %4, align 8, !tbaa !62
  %6 = getelementptr i8, ptr %5, i64 16
  %.val = load i64, ptr %6, align 8, !tbaa !52
  %7 = getelementptr inbounds nuw i8, ptr %0, i64 48
  %8 = load i64, ptr %7, align 8, !tbaa !64
  %9 = sub i64 %.val, %8
  %10 = tail call ptr (ptr, ...) @Py_BuildValue(ptr noundef nonnull @.str.66, ptr noundef %.val7, ptr noundef %5, i64 noundef %9) #9
  ret ptr %10
}